target datalayout = "e-m:e-p270:32:32-p271:32:32-p272:64:64-i64:64-i128:128-f80:128-n8:16:32:64-S128"
target triple = "x86_64-pc-linux-gnu"

; Function Attrs: nounwind uwtable
define i64 @cli_ldbtokenize(ptr noundef %0, i8 noundef signext %1, i64 noundef %2, ptr noundef %3, i64 noundef %4) #0 {
  %6 = alloca i64, align 8
  %7 = alloca ptr, align 8
  %8 = alloca i8, align 1
  %9 = alloca i64, align 8
  %10 = alloca ptr, align 8
  %11 = alloca i64, align 8
  %12 = alloca i64, align 8
  %13 = alloca i64, align 8
  %14 = alloca i64, align 8
  %15 = alloca i8, align 1
  store ptr %0, ptr %7, align 8
  store i8 %1, ptr %8, align 1
  store i64 %2, ptr %9, align 8
  store ptr %3, ptr %10, align 8
  store i64 %4, ptr %11, align 8
  store i64 0, ptr %12, align 8
  store i64 0, ptr %13, align 8
  store i64 0, ptr %14, align 8
  store i8 0, ptr %15, align 1
  br label %16

16:                                               ; preds = %106, %5
  %17 = load i64, ptr %12, align 8
  %18 = load i64, ptr %9, align 8
  %19 = icmp ult i64 %17, %18
  br i1 %19, label %20, label %107

20:                                               ; preds = %16
  %21 = load ptr, ptr %7, align 8
  %22 = load i64, ptr %14, align 8
  %23 = getelementptr inbounds i8, ptr %21, i64 %22
  %24 = load ptr, ptr %10, align 8
  %25 = load i64, ptr %12, align 8
  %26 = add i64 %25, 1
  store i64 %26, ptr %12, align 8
  %27 = getelementptr inbounds ptr, ptr %24, i64 %25
  store ptr %23, ptr %27, align 8
  br label %28

28:                                               ; preds = %76, %20
  %29 = load ptr, ptr %7, align 8
  %30 = load i64, ptr %14, align 8
  %31 = getelementptr inbounds i8, ptr %29, i64 %30
  %32 = load i8, ptr %31, align 1
  %33 = sext i8 %32 to i32
  %34 = icmp ne i32 %33, 0
  br i1 %34, label %35, label %79

35:                                               ; preds = %28
  %36 = load i8, ptr %15, align 1
  %37 = trunc i8 %36 to i1
  br i1 %37, label %48, label %38

38:                                               ; preds = %35
  %39 = load ptr, ptr %7, align 8
  %40 = load i64, ptr %14, align 8
  %41 = getelementptr inbounds i8, ptr %39, i64 %40
  %42 = load i8, ptr %41, align 1
  %43 = sext i8 %42 to i32
  %44 = load i8, ptr %8, align 1
  %45 = sext i8 %44 to i32
  %46 = icmp eq i32 %43, %45
  br i1 %46, label %47, label %48

47:                                               ; preds = %38
  br label %79

48:                                               ; preds = %38, %35
  %49 = load i64, ptr %12, align 8
  %50 = load i64, ptr %11, align 8
  %51 = icmp ugt i64 %49, %50
  br i1 %51, label %52, label %75

52:                                               ; preds = %48
  %53 = load i64, ptr %14, align 8
  %54 = icmp ugt i64 %53, 0
  br i1 %54, label %55, label %75

55:                                               ; preds = %52
  %56 = load ptr, ptr %7, align 8
  %57 = load i64, ptr %14, align 8
  %58 = sub i64 %57, 1
  %59 = getelementptr inbounds i8, ptr %56, i64 %58
  %60 = load i8, ptr %59, align 1
  %61 = sext i8 %60 to i32
  %62 = icmp ne i32 %61, 92
  br i1 %62, label %63, label %75

63:                                               ; preds = %55
  %64 = load ptr, ptr %7, align 8
  %65 = load i64, ptr %14, align 8
  %66 = getelementptr inbounds i8, ptr %64, i64 %65
  %67 = load i8, ptr %66, align 1
  %68 = sext i8 %67 to i32
  %69 = icmp eq i32 %68, 47
  br i1 %69, label %70, label %75

70:                                               ; preds = %63
  %71 = load i8, ptr %15, align 1
  %72 = trunc i8 %71 to i1
  %73 = xor i1 %72, true
  %74 = zext i1 %73 to i8
  store i8 %74, ptr %15, align 1
  br label %75

75:                                               ; preds = %70, %63, %55, %52, %48
  br label %76

76:                                               ; preds = %75
  %77 = load i64, ptr %14, align 8
  %78 = add i64 %77, 1
  store i64 %78, ptr %14, align 8
  br label %28

79:                                               ; preds = %47, %28
  %80 = load ptr, ptr %7, align 8
  %81 = load i64, ptr %14, align 8
  %82 = getelementptr inbounds i8, ptr %80, i64 %81
  %83 = load i8, ptr %82, align 1
  %84 = sext i8 %83 to i32
  %85 = icmp ne i32 %84, 0
  br i1 %85, label %86, label %92

86:                                               ; preds = %79
  %87 = load ptr, ptr %7, align 8
  %88 = load i64, ptr %14, align 8
  %89 = getelementptr inbounds i8, ptr %87, i64 %88
  store i8 0, ptr %89, align 1
  %90 = load i64, ptr %14, align 8
  %91 = add i64 %90, 1
  store i64 %91, ptr %14, align 8
  br label %106

92:                                               ; preds = %79
  %93 = load i64, ptr %12, align 8
  store i64 %93, ptr %13, align 8
  br label %94

94:                                               ; preds = %98, %92
  %95 = load i64, ptr %13, align 8
  %96 = load i64, ptr %9, align 8
  %97 = icmp ult i64 %95, %96
  br i1 %97, label %98, label %104

98:                                               ; preds = %94
  %99 = load ptr, ptr %10, align 8
  %100 = load i64, ptr %13, align 8
  %101 = getelementptr inbounds ptr, ptr %99, i64 %100
  store ptr null, ptr %101, align 8
  %102 = load i64, ptr %13, align 8
  %103 = add i64 %102, 1
  store i64 %103, ptr %13, align 8
  br label %94

104:                                              ; preds = %94
  %105 = load i64, ptr %12, align 8
  store i64 %105, ptr %6, align 8
  br label %109

106:                                              ; preds = %86
  br label %16

107:                                              ; preds = %16
  %108 = load i64, ptr %12, align 8
  store i64 %108, ptr %6, align 8
  br label %109

109:                                              ; preds = %107, %104
  %110 = load i64, ptr %6, align 8
  ret i64 %110
}