; Function Attrs: nofree norecurse nosync nounwind memory(readwrite, inaccessiblemem: none) uwtable
define i64 @cli_ldbtokenize(ptr noundef %0, i8 noundef signext %1, i64 noundef %2, ptr nocapture noundef writeonly %3, i64 noundef %4) local_unnamed_addr #19 {
  %.not84 = icmp eq i64 %2, 0
  br i1 %.not84, label %.loopexit, label %.lr.ph80

.lr.ph80:                                         ; preds = %5, %.split.us
  %.03578 = phi i64 [ %31, %.split.us ], [ 0, %5 ]
  %.03877 = phi i64 [ %7, %.split.us ], [ 0, %5 ]
  %6 = getelementptr inbounds i8, ptr %0, i64 %.03578
  %7 = add nuw i64 %.03877, 1
  %8 = getelementptr inbounds ptr, ptr %3, i64 %.03877
  store ptr %6, ptr %8, align 8
  %9 = load i8, ptr %6, align 1
  %.not53 = icmp eq i8 %9, 0
  br i1 %.not53, label %.preheader, label %.lr.ph

.lr.ph:                                           ; preds = %.lr.ph80
  %.not85 = icmp ult i64 %.03877, %4
  br i1 %.not85, label %.lr.ph.split.us, label %.lr.ph.split

.lr.ph.split.us:                                  ; preds = %.lr.ph
  %.not106 = icmp eq i8 %9, %1
  br i1 %.not106, label %.split.us, label %.lr.ph63.split

10:                                               ; preds = %.lr.ph63.split
  %.not86 = icmp eq i8 %13, %1
  br i1 %.not86, label %.split.us.loopexit, label %.lr.ph63.split

.lr.ph63.split:                                   ; preds = %.lr.ph.split.us, %10
  %.13654.us62 = phi i64 [ %11, %10 ], [ %.03578, %.lr.ph.split.us ]
  %11 = add i64 %.13654.us62, 1
  %12 = getelementptr inbounds i8, ptr %0, i64 %11
  %13 = load i8, ptr %12, align 1
  %.not.us = icmp eq i8 %13, 0
  br i1 %.not.us, label %.preheader, label %10

.preheader:                                       ; preds = %.lr.ph80, %26, %.lr.ph63.split
  %14 = icmp ult i64 %7, %2
  br i1 %14, label %.lr.ph83.preheader, label %.loopexit

.lr.ph83.preheader:                               ; preds = %.preheader
  %15 = shl i64 %7, 3
  %scevgep = getelementptr i8, ptr %3, i64 %15
  %16 = sub i64 %2, %7
  %17 = shl i64 %16, 3
  tail call void @llvm.memset.p0.i64(ptr align 8 %scevgep, i8 0, i64 %17, i1 false)
  br label %.loopexit

.lr.ph.split:                                     ; preds = %.lr.ph, %26
  %18 = phi i8 [ %29, %26 ], [ %9, %.lr.ph ]
  %19 = phi ptr [ %28, %26 ], [ %6, %.lr.ph ]
  %.155 = phi i1 [ %.2, %26 ], [ false, %.lr.ph ]
  %.13654 = phi i64 [ %27, %26 ], [ %.03578, %.lr.ph ]
  %20 = icmp ne i8 %18, %1
  %or.cond45.not = or i1 %.155, %20
  br i1 %or.cond45.not, label %21, label %.split.us

21:                                               ; preds = %.lr.ph.split
  %.not87 = icmp eq i64 %.13654, 0
  br i1 %.not87, label %26, label %22

22:                                               ; preds = %21
  %23 = getelementptr i8, ptr %19, i64 -1
  %24 = load i8, ptr %23, align 1
  %.not43 = icmp ne i8 %24, 92
  %25 = icmp eq i8 %18, 47
  %or.cond46 = and i1 %25, %.not43
  %spec.select = xor i1 %.155, %or.cond46
  br label %26

26:                                               ; preds = %22, %21
  %.2 = phi i1 [ %.155, %21 ], [ %spec.select, %22 ]
  %27 = add i64 %.13654, 1
  %28 = getelementptr inbounds i8, ptr %0, i64 %27
  %29 = load i8, ptr %28, align 1
  %.not = icmp eq i8 %29, 0
  br i1 %.not, label %.preheader, label %.lr.ph.split

.split.us.loopexit:                               ; preds = %10
  %30 = getelementptr inbounds i8, ptr %0, i64 %11
  br label %.split.us

.split.us:                                        ; preds = %.lr.ph.split, %.split.us.loopexit, %.lr.ph.split.us
  %.us-phi = phi i64 [ %.03578, %.lr.ph.split.us ], [ %11, %.split.us.loopexit ], [ %.13654, %.lr.ph.split ]
  %.us-phi59 = phi ptr [ %6, %.lr.ph.split.us ], [ %30, %.split.us.loopexit ], [ %19, %.lr.ph.split ]
  store i8 0, ptr %.us-phi59, align 1
  %31 = add i64 %.us-phi, 1
  %exitcond.not = icmp eq i64 %7, %2
  br i1 %exitcond.not, label %.loopexit, label %.lr.ph80

.loopexit:                                        ; preds = %.split.us, %.lr.ph83.preheader, %5, %.preheader
  %.039 = phi i64 [ %7, %.preheader ], [ 0, %5 ], [ %7, %.lr.ph83.preheader ], [ %2, %.split.us ]
  ret i64 %.039
}